(dp1
S'/Users/ln30/Git/Neurosynth_SNA/NSNA_GUI'
p2
S'/Volumes/huettel/KBE.01/Analysis/Neurosynth/SNAFiles'
p3
sS'/Users/law826/github/Neurosynth_SNA/NSNA_GUI'
p4
S'/Users/law826/github/Neurosynth_SNA/NSNA_GUI'
p5
s.